target datalayout = "e-m:e-p270:32:32-p271:32:32-p272:64:64-i64:64-i128:128-f80:128-n8:16:32:64-S128"
target triple = "x86_64-unknown-linux-gnu"

%"struct.rocksdb::lru_cache::LRUHandle" = type { ptr, ptr, ptr, ptr, ptr, i64, i64, i32, i32, i8, i8, [1 x i8] }
%"class.rocksdb::Slice" = type { ptr, i64 }
%"class.rocksdb::CacheShardBase" = type { i32 }
%"class.rocksdb::Status" = type { i8, i8, i8, i8, i8, i8, %"class.std::unique_ptr.6" }
%"class.std::unique_ptr.6" = type { %"struct.std::__uniq_ptr_data.7" }
%"struct.std::__uniq_ptr_data.7" = type { %"class.std::__uniq_ptr_impl.8" }
%"class.std::__uniq_ptr_impl.8" = type { %"class.std::tuple.9" }
%"class.std::tuple.9" = type { %"struct.std::_Tuple_impl.10" }
%"struct.std::_Tuple_impl.10" = type { %"struct.std::_Head_base.13" }
%"struct.std::_Head_base.13" = type { ptr }

; Function Attrs: mustprogress nounwind uwtable
define linkonce_odr noundef i64 @_ZNK7rocksdb9lru_cache9LRUHandle15CalcuMetaChargeENS_25CacheMetadataChargePolicyE(ptr noundef nonnull align 8 dereferenceable(72) %this, i32 noundef %metadata_charge_policy) #4 comdat align 2 {
entry:
  %retval = alloca i64, align 8
  %this.addr = alloca ptr, align 8
  %metadata_charge_policy.addr = alloca i32, align 4
  store ptr %this, ptr %this.addr, align 8
  store i32 %metadata_charge_policy, ptr %metadata_charge_policy.addr, align 4
  %this1 = load ptr, ptr %this.addr, align 8
  %0 = load i32, ptr %metadata_charge_policy.addr, align 4
  %cmp = icmp ne i32 %0, 1
  br i1 %cmp, label %if.then, label %if.else

if.then:                                          ; preds = %entry
  store i64 0, ptr %retval, align 8
  br label %return

if.else:                                          ; preds = %entry
  %call = call i64 @malloc_usable_size(ptr noundef %this1) #15
  store i64 %call, ptr %retval, align 8
  br label %return

return:                                           ; preds = %if.else, %if.then
  %1 = load i64, ptr %retval, align 8
  ret i64 %1
}

; Function Attrs: mustprogress uwtable
define linkonce_odr void @_ZN7rocksdb9lru_cache9LRUHandle15CalcTotalChargeEmNS_25CacheMetadataChargePolicyE(ptr noundef nonnull align 8 dereferenceable(72) %this, i64 noundef %charge, i32 noundef %metadata_charge_policy) #0 comdat align 2 {
entry:
  %this.addr = alloca ptr, align 8
  %charge.addr = alloca i64, align 8
  %metadata_charge_policy.addr = alloca i32, align 4
  store ptr %this, ptr %this.addr, align 8
  store i64 %charge, ptr %charge.addr, align 8
  store i32 %metadata_charge_policy, ptr %metadata_charge_policy.addr, align 4
  %this1 = load ptr, ptr %this.addr, align 8
  %0 = load i64, ptr %charge.addr, align 8
  %1 = load i32, ptr %metadata_charge_policy.addr, align 4
  %call = call noundef i64 @_ZNK7rocksdb9lru_cache9LRUHandle15CalcuMetaChargeENS_25CacheMetadataChargePolicyE(ptr noundef nonnull align 8 dereferenceable(72) %this1, i32 noundef %1)
  %add = add i64 %0, %call
  %total_charge = getelementptr inbounds %"struct.rocksdb::lru_cache::LRUHandle", ptr %this1, i32 0, i32 5
  store i64 %add, ptr %total_charge, align 8
  ret void
}

; Function Attrs: mustprogress nounwind uwtable
define linkonce_odr noundef ptr @_ZNK7rocksdb5Slice4dataEv(ptr noundef nonnull align 8 dereferenceable(16) %this) #4 comdat align 2 {
entry:
  %this.addr = alloca ptr, align 8
  store ptr %this, ptr %this.addr, align 8
  %this1 = load ptr, ptr %this.addr, align 8
  %data_ = getelementptr inbounds %"class.rocksdb::Slice", ptr %this1, i32 0, i32 0
  %0 = load ptr, ptr %data_, align 8
  ret ptr %0
}

; Function Attrs: mustprogress nounwind uwtable
define linkonce_odr noundef i64 @_ZNK7rocksdb5Slice4sizeEv(ptr noundef nonnull align 8 dereferenceable(16) %this) #4 comdat align 2 {
entry:
  %this.addr = alloca ptr, align 8
  store ptr %this, ptr %this.addr, align 8
  %this1 = load ptr, ptr %this.addr, align 8
  %size_ = getelementptr inbounds %"class.rocksdb::Slice", ptr %this1, i32 0, i32 1
  %0 = load i64, ptr %size_, align 8
  ret i64 %0
}

; Function Attrs: mustprogress nounwind uwtable
define linkonce_odr void @_ZN7rocksdb9lru_cache9LRUHandle10SetInCacheEb(ptr noundef nonnull align 8 dereferenceable(72) %this, i1 noundef zeroext %in_cache) #4 comdat align 2 {
entry:
  %this.addr = alloca ptr, align 8
  %in_cache.addr = alloca i8, align 1
  store ptr %this, ptr %this.addr, align 8
  %frombool = zext i1 %in_cache to i8
  store i8 %frombool, ptr %in_cache.addr, align 1
  %this1 = load ptr, ptr %this.addr, align 8
  %0 = load i8, ptr %in_cache.addr, align 1
  %tobool = trunc i8 %0 to i1
  br i1 %tobool, label %if.then, label %if.else

if.then:                                          ; preds = %entry
  %m_flags = getelementptr inbounds %"struct.rocksdb::lru_cache::LRUHandle", ptr %this1, i32 0, i32 9
  %1 = load i8, ptr %m_flags, align 8
  %conv = zext i8 %1 to i32
  %or = or i32 %conv, 1
  %conv2 = trunc i32 %or to i8
  store i8 %conv2, ptr %m_flags, align 8
  br label %if.end

if.else:                                          ; preds = %entry
  %m_flags3 = getelementptr inbounds %"struct.rocksdb::lru_cache::LRUHandle", ptr %this1, i32 0, i32 9
  %2 = load i8, ptr %m_flags3, align 8
  %conv4 = zext i8 %2 to i32
  %and = and i32 %conv4, -2
  %conv5 = trunc i32 %and to i8
  store i8 %conv5, ptr %m_flags3, align 8
  br label %if.end

if.end:                                           ; preds = %if.else, %if.then
  ret void
}

; Function Attrs: mustprogress nounwind uwtable
define linkonce_odr void @_ZN7rocksdb9lru_cache9LRUHandle11SetPriorityENS_5Cache8PriorityE(ptr noundef nonnull align 8 dereferenceable(72) %this, i32 noundef %priority) #4 comdat align 2 {
entry:
  %this.addr = alloca ptr, align 8
  %priority.addr = alloca i32, align 4
  store ptr %this, ptr %this.addr, align 8
  store i32 %priority, ptr %priority.addr, align 4
  %this1 = load ptr, ptr %this.addr, align 8
  %0 = load i32, ptr %priority.addr, align 4
  %cmp = icmp eq i32 %0, 0
  br i1 %cmp, label %if.then, label %if.else

if.then:                                          ; preds = %entry
  %im_flags = getelementptr inbounds %"struct.rocksdb::lru_cache::LRUHandle", ptr %this1, i32 0, i32 10
  %1 = load i8, ptr %im_flags, align 1
  %conv = zext i8 %1 to i32
  %or = or i32 %conv, 1
  %conv2 = trunc i32 %or to i8
  store i8 %conv2, ptr %im_flags, align 1
  %im_flags3 = getelementptr inbounds %"struct.rocksdb::lru_cache::LRUHandle", ptr %this1, i32 0, i32 10
  %2 = load i8, ptr %im_flags3, align 1
  %conv4 = zext i8 %2 to i32
  %and = and i32 %conv4, -3
  %conv5 = trunc i32 %and to i8
  store i8 %conv5, ptr %im_flags3, align 1
  br label %if.end25

if.else:                                          ; preds = %entry
  %3 = load i32, ptr %priority.addr, align 4
  %cmp6 = icmp eq i32 %3, 1
  br i1 %cmp6, label %if.then7, label %if.else16

if.then7:                                         ; preds = %if.else
  %im_flags8 = getelementptr inbounds %"struct.rocksdb::lru_cache::LRUHandle", ptr %this1, i32 0, i32 10
  %4 = load i8, ptr %im_flags8, align 1
  %conv9 = zext i8 %4 to i32
  %and10 = and i32 %conv9, -2
  %conv11 = trunc i32 %and10 to i8
  store i8 %conv11, ptr %im_flags8, align 1
  %im_flags12 = getelementptr inbounds %"struct.rocksdb::lru_cache::LRUHandle", ptr %this1, i32 0, i32 10
  %5 = load i8, ptr %im_flags12, align 1
  %conv13 = zext i8 %5 to i32
  %or14 = or i32 %conv13, 2
  %conv15 = trunc i32 %or14 to i8
  store i8 %conv15, ptr %im_flags12, align 1
  br label %if.end

if.else16:                                        ; preds = %if.else
  %im_flags17 = getelementptr inbounds %"struct.rocksdb::lru_cache::LRUHandle", ptr %this1, i32 0, i32 10
  %6 = load i8, ptr %im_flags17, align 1
  %conv18 = zext i8 %6 to i32
  %and19 = and i32 %conv18, -2
  %conv20 = trunc i32 %and19 to i8
  store i8 %conv20, ptr %im_flags17, align 1
  %im_flags21 = getelementptr inbounds %"struct.rocksdb::lru_cache::LRUHandle", ptr %this1, i32 0, i32 10
  %7 = load i8, ptr %im_flags21, align 1
  %conv22 = zext i8 %7 to i32
  %and23 = and i32 %conv22, -3
  %conv24 = trunc i32 %and23 to i8
  store i8 %conv24, ptr %im_flags21, align 1
  br label %if.end

if.end:                                           ; preds = %if.else16, %if.then7
  br label %if.end25

if.end25:                                         ; preds = %if.end, %if.then
  ret void
}

; Function Attrs: mustprogress uwtable
define noundef ptr @_ZN7rocksdb9lru_cache13LRUCacheShard12CreateHandleERKNS_5SliceEjPvPKNS_5Cache15CacheItemHelperEm(ptr noundef nonnull align 64 dereferenceable(256) %this, ptr noundef nonnull align 8 dereferenceable(16) %key, i32 noundef %hash, ptr noundef %value, ptr noundef %helper, i64 noundef %charge) #0 align 2 {
entry:
  %this.addr = alloca ptr, align 8
  %key.addr = alloca ptr, align 8
  %hash.addr = alloca i32, align 4
  %value.addr = alloca ptr, align 8
  %helper.addr = alloca ptr, align 8
  %charge.addr = alloca i64, align 8
  %e = alloca ptr, align 8
  store ptr %this, ptr %this.addr, align 8
  store ptr %key, ptr %key.addr, align 8
  store i32 %hash, ptr %hash.addr, align 4
  store ptr %value, ptr %value.addr, align 8
  store ptr %helper, ptr %helper.addr, align 8
  store i64 %charge, ptr %charge.addr, align 8
  %this1 = load ptr, ptr %this.addr, align 8
  %0 = load ptr, ptr %key.addr, align 8
  %call = call noundef i64 @_ZNK7rocksdb5Slice4sizeEv(ptr noundef nonnull align 8 dereferenceable(16) %0)
  %add = add i64 71, %call
  %call2 = call noalias ptr @malloc(i64 noundef %add) #19
  store ptr %call2, ptr %e, align 8
  %1 = load ptr, ptr %value.addr, align 8
  %2 = load ptr, ptr %e, align 8
  %value3 = getelementptr inbounds %"struct.rocksdb::lru_cache::LRUHandle", ptr %2, i32 0, i32 0
  store ptr %1, ptr %value3, align 8
  %3 = load ptr, ptr %e, align 8
  %m_flags = getelementptr inbounds %"struct.rocksdb::lru_cache::LRUHandle", ptr %3, i32 0, i32 9
  store i8 0, ptr %m_flags, align 8
  %4 = load ptr, ptr %e, align 8
  %im_flags = getelementptr inbounds %"struct.rocksdb::lru_cache::LRUHandle", ptr %4, i32 0, i32 10
  store i8 0, ptr %im_flags, align 1
  %5 = load ptr, ptr %helper.addr, align 8
  %6 = load ptr, ptr %e, align 8
  %helper4 = getelementptr inbounds %"struct.rocksdb::lru_cache::LRUHandle", ptr %6, i32 0, i32 1
  store ptr %5, ptr %helper4, align 8
  %7 = load ptr, ptr %key.addr, align 8
  %call5 = call noundef i64 @_ZNK7rocksdb5Slice4sizeEv(ptr noundef nonnull align 8 dereferenceable(16) %7)
  %8 = load ptr, ptr %e, align 8
  %key_length = getelementptr inbounds %"struct.rocksdb::lru_cache::LRUHandle", ptr %8, i32 0, i32 6
  store i64 %call5, ptr %key_length, align 8
  %9 = load i32, ptr %hash.addr, align 4
  %10 = load ptr, ptr %e, align 8
  %hash6 = getelementptr inbounds %"struct.rocksdb::lru_cache::LRUHandle", ptr %10, i32 0, i32 7
  store i32 %9, ptr %hash6, align 8
  %11 = load ptr, ptr %e, align 8
  %refs = getelementptr inbounds %"struct.rocksdb::lru_cache::LRUHandle", ptr %11, i32 0, i32 8
  store i32 0, ptr %refs, align 4
  %12 = load ptr, ptr %e, align 8
  %prev = getelementptr inbounds %"struct.rocksdb::lru_cache::LRUHandle", ptr %12, i32 0, i32 4
  store ptr null, ptr %prev, align 8
  %13 = load ptr, ptr %e, align 8
  %next = getelementptr inbounds %"struct.rocksdb::lru_cache::LRUHandle", ptr %13, i32 0, i32 3
  store ptr null, ptr %next, align 8
  %14 = load ptr, ptr %e, align 8
  %key_data = getelementptr inbounds %"struct.rocksdb::lru_cache::LRUHandle", ptr %14, i32 0, i32 11
  %arraydecay = getelementptr inbounds [1 x i8], ptr %key_data, i64 0, i64 0
  %15 = load ptr, ptr %key.addr, align 8
  %call7 = call noundef ptr @_ZNK7rocksdb5Slice4dataEv(ptr noundef nonnull align 8 dereferenceable(16) %15)
  %16 = load ptr, ptr %key.addr, align 8
  %call8 = call noundef i64 @_ZNK7rocksdb5Slice4sizeEv(ptr noundef nonnull align 8 dereferenceable(16) %16)
  call void @llvm.memcpy.p0.p0.i64(ptr align 2 %arraydecay, ptr align 1 %call7, i64 %call8, i1 false)
  %17 = load ptr, ptr %e, align 8
  %18 = load i64, ptr %charge.addr, align 8
  %metadata_charge_policy_ = getelementptr inbounds %"class.rocksdb::CacheShardBase", ptr %this1, i32 0, i32 0
  %19 = load i32, ptr %metadata_charge_policy_, align 64
  call void @_ZN7rocksdb9lru_cache9LRUHandle15CalcTotalChargeEmNS_25CacheMetadataChargePolicyE(ptr noundef nonnull align 8 dereferenceable(72) %17, i64 noundef %18, i32 noundef %19)
  %20 = load ptr, ptr %e, align 8
  ret ptr %20
}

; Function Attrs: mustprogress uwtable
define void @_ZN7rocksdb9lru_cache13LRUCacheShard6InsertERKNS_5SliceEjPvPKNS_5Cache15CacheItemHelperEmPPNS0_9LRUHandleENS6_8PriorityE(ptr noalias sret(%"class.rocksdb::Status") align 8 %agg.result, ptr noundef nonnull align 64 dereferenceable(256) %this, ptr noundef nonnull align 8 dereferenceable(16) %key, i32 noundef %hash, ptr noundef %value, ptr noundef %helper, i64 noundef %charge, ptr noundef %handle, i32 noundef %priority) #0 align 2 {
entry:
  %result.ptr = alloca ptr, align 8
  %this.addr = alloca ptr, align 8
  %key.addr = alloca ptr, align 8
  %hash.addr = alloca i32, align 4
  %value.addr = alloca ptr, align 8
  %helper.addr = alloca ptr, align 8
  %charge.addr = alloca i64, align 8
  %handle.addr = alloca ptr, align 8
  %priority.addr = alloca i32, align 4
  %e = alloca ptr, align 8
  store ptr %agg.result, ptr %result.ptr, align 8
  store ptr %this, ptr %this.addr, align 8
  store ptr %key, ptr %key.addr, align 8
  store i32 %hash, ptr %hash.addr, align 4
  store ptr %value, ptr %value.addr, align 8
  store ptr %helper, ptr %helper.addr, align 8
  store i64 %charge, ptr %charge.addr, align 8
  store ptr %handle, ptr %handle.addr, align 8
  store i32 %priority, ptr %priority.addr, align 4
  %this1 = load ptr, ptr %this.addr, align 8
  %0 = load ptr, ptr %key.addr, align 8
  %1 = load i32, ptr %hash.addr, align 4
  %2 = load ptr, ptr %value.addr, align 8
  %3 = load ptr, ptr %helper.addr, align 8
  %4 = load i64, ptr %charge.addr, align 8
  %call = call noundef ptr @_ZN7rocksdb9lru_cache13LRUCacheShard12CreateHandleERKNS_5SliceEjPvPKNS_5Cache15CacheItemHelperEm(ptr noundef nonnull align 64 dereferenceable(256) %this1, ptr noundef nonnull align 8 dereferenceable(16) %0, i32 noundef %1, ptr noundef %2, ptr noundef %3, i64 noundef %4)
  store ptr %call, ptr %e, align 8
  %5 = load ptr, ptr %e, align 8
  %6 = load i32, ptr %priority.addr, align 4
  call void @_ZN7rocksdb9lru_cache9LRUHandle11SetPriorityENS_5Cache8PriorityE(ptr noundef nonnull align 8 dereferenceable(72) %5, i32 noundef %6)
  %7 = load ptr, ptr %e, align 8
  call void @_ZN7rocksdb9lru_cache9LRUHandle10SetInCacheEb(ptr noundef nonnull align 8 dereferenceable(72) %7, i1 noundef zeroext true)
  %8 = load ptr, ptr %e, align 8
  %9 = load ptr, ptr %handle.addr, align 8
  call void @_ZN7rocksdb9lru_cache13LRUCacheShard10InsertItemEPNS0_9LRUHandleEPS3_(ptr sret(%"class.rocksdb::Status") align 8 %agg.result, ptr noundef nonnull align 64 dereferenceable(256) %this1, ptr noundef %8, ptr noundef %9)
  ret void
}