; Function Attrs: mustprogress uwtable
define void @_ZN7rocksdb9lru_cache13LRUCacheShard6InsertERKNS_5SliceEjPvPKNS_5Cache15CacheItemHelperEmPPNS0_9LRUHandleENS6_8PriorityE(ptr noalias sret(%"class.rocksdb::Status") align 8 %agg.result, ptr noundef nonnull align 64 dereferenceable(256) %this, ptr nocapture noundef nonnull readonly align 8 dereferenceable(16) %key, i32 noundef %hash, ptr noundef %value, ptr noundef %helper, i64 noundef %charge, ptr noundef %handle, i32 noundef %priority) local_unnamed_addr #0 align 2 {
entry:
  %size_.i.i = getelementptr inbounds i8, ptr %key, i64 8
  %0 = load i64, ptr %size_.i.i, align 8
  %add.i = add i64 %0, 71
  %call2.i = tail call noalias ptr @malloc(i64 noundef %add.i) #29
  store ptr %value, ptr %call2.i, align 8
  %m_flags.i = getelementptr inbounds i8, ptr %call2.i, i64 64
  store i8 0, ptr %m_flags.i, align 8
  %im_flags.i = getelementptr inbounds i8, ptr %call2.i, i64 65
  store i8 0, ptr %im_flags.i, align 1
  %helper4.i = getelementptr inbounds i8, ptr %call2.i, i64 8
  store ptr %helper, ptr %helper4.i, align 8
  %key_length.i = getelementptr inbounds i8, ptr %call2.i, i64 48
  store i64 %0, ptr %key_length.i, align 8
  %hash6.i = getelementptr inbounds i8, ptr %call2.i, i64 56
  store i32 %hash, ptr %hash6.i, align 8
  %refs.i = getelementptr inbounds i8, ptr %call2.i, i64 60
  store i32 0, ptr %refs.i, align 4
  %next.i = getelementptr inbounds i8, ptr %call2.i, i64 24
  %key_data.i = getelementptr inbounds i8, ptr %call2.i, i64 66
  tail call void @llvm.memset.p0.i64(ptr noundef nonnull align 8 dereferenceable(16) %next.i, i8 0, i64 16, i1 false)
  %1 = load ptr, ptr %key, align 8
  tail call void @llvm.memcpy.p0.p0.i64(ptr nonnull align 2 %key_data.i, ptr align 1 %1, i64 %0, i1 false)
  %2 = load i32, ptr %this, align 64
  %cmp.not.i.i.i = icmp eq i32 %2, 1
  br i1 %cmp.not.i.i.i, label %if.else.i.i.i, label %_ZN7rocksdb9lru_cache13LRUCacheShard12CreateHandleERKNS_5SliceEjPvPKNS_5Cache15CacheItemHelperEm.exit

if.else.i.i.i:                                    ; preds = %entry
  %call.i.i.i = tail call i64 @malloc_usable_size(ptr noundef nonnull %call2.i) #25
  %.pre = load i8, ptr %im_flags.i, align 1
  %3 = and i8 %.pre, -4
  br label %_ZN7rocksdb9lru_cache13LRUCacheShard12CreateHandleERKNS_5SliceEjPvPKNS_5Cache15CacheItemHelperEm.exit

_ZN7rocksdb9lru_cache13LRUCacheShard12CreateHandleERKNS_5SliceEjPvPKNS_5Cache15CacheItemHelperEm.exit: ; preds = %entry, %if.else.i.i.i
  %4 = phi i8 [ %3, %if.else.i.i.i ], [ 0, %entry ]
  %retval.0.i.i.i = phi i64 [ %call.i.i.i, %if.else.i.i.i ], [ 0, %entry ]
  %add.i.i = add i64 %retval.0.i.i.i, %charge
  %total_charge.i.i = getelementptr inbounds i8, ptr %call2.i, i64 40
  store i64 %add.i.i, ptr %total_charge.i.i, align 8
  switch i32 %priority, label %_ZN7rocksdb9lru_cache9LRUHandle11SetPriorityENS_5Cache8PriorityE.exit [
    i32 0, label %if.then.i
    i32 1, label %if.then7.i
  ]

if.then.i:                                        ; preds = %_ZN7rocksdb9lru_cache13LRUCacheShard12CreateHandleERKNS_5SliceEjPvPKNS_5Cache15CacheItemHelperEm.exit
  %5 = or disjoint i8 %4, 1
  br label %_ZN7rocksdb9lru_cache9LRUHandle11SetPriorityENS_5Cache8PriorityE.exit

if.then7.i:                                       ; preds = %_ZN7rocksdb9lru_cache13LRUCacheShard12CreateHandleERKNS_5SliceEjPvPKNS_5Cache15CacheItemHelperEm.exit
  %6 = or disjoint i8 %4, 2
  br label %_ZN7rocksdb9lru_cache9LRUHandle11SetPriorityENS_5Cache8PriorityE.exit

_ZN7rocksdb9lru_cache9LRUHandle11SetPriorityENS_5Cache8PriorityE.exit: ; preds = %_ZN7rocksdb9lru_cache13LRUCacheShard12CreateHandleERKNS_5SliceEjPvPKNS_5Cache15CacheItemHelperEm.exit, %if.then.i, %if.then7.i
  %.sink.i = phi i8 [ %6, %if.then7.i ], [ %5, %if.then.i ], [ %4, %_ZN7rocksdb9lru_cache13LRUCacheShard12CreateHandleERKNS_5SliceEjPvPKNS_5Cache15CacheItemHelperEm.exit ]
  store i8 %.sink.i, ptr %im_flags.i, align 1
  %7 = load i8, ptr %m_flags.i, align 8
  %.sink.i4 = or i8 %7, 1
  store i8 %.sink.i4, ptr %m_flags.i, align 8
  tail call void @_ZN7rocksdb9lru_cache13LRUCacheShard10InsertItemEPNS0_9LRUHandleEPS3_(ptr sret(%"class.rocksdb::Status") align 8 %agg.result, ptr noundef nonnull align 64 dereferenceable(256) %this, ptr noundef nonnull %call2.i, ptr noundef %handle)
  ret void
}